	.text
	.attribute	4, 16
	.attribute	5, "rv32i2p1_m2p0_a2p1_c2p0_zmmul1p0"
	.file	"fulladder1.c"
	.globl	fullAdder1                      # -- Begin function fullAdder1
	.p2align	1
	.type	fullAdder1,@function
fullAdder1:                             # @fullAdder1
.Lfunc_begin0:
	.file	0 "/u/uab9qt/worktable/llvm_repos/bit-serial-compiler/step3-circuit-to-asm/1bit_full_adder" "fulladder1.c" md5 0xb38f70c24d434d8a2a7c79f5a0ae8895
	.loc	0 13 0                          # fulladder1.c:13:0
	.cfi_sections .debug_frame
	.cfi_startproc
# %bb.0:
	#DEBUG_VALUE: fullAdder1:pi0_p <- $x10
	#DEBUG_VALUE: fullAdder1:pi1_p <- $x11
	#DEBUG_VALUE: fullAdder1:pi2_p <- $x12
	#DEBUG_VALUE: fullAdder1:pi3_p <- $x13
	#DEBUG_VALUE: fullAdder1:pi4_p <- $x14
	#DEBUG_VALUE: fullAdder1:po0_p <- $x15
	#DEBUG_VALUE: fullAdder1:po1_p <- $x16
	#DEBUG_VALUE: fullAdder1:po2_p <- $x17
	addi	sp, sp, -96
	.cfi_def_cfa_offset 96
	sw	ra, 92(sp)                      # 4-byte Folded Spill
	sw	s0, 88(sp)                      # 4-byte Folded Spill
	sw	s1, 84(sp)                      # 4-byte Folded Spill
	sw	s2, 80(sp)                      # 4-byte Folded Spill
	sw	s3, 76(sp)                      # 4-byte Folded Spill
	sw	s4, 72(sp)                      # 4-byte Folded Spill
	sw	s5, 68(sp)                      # 4-byte Folded Spill
	sw	s6, 64(sp)                      # 4-byte Folded Spill
	sw	s7, 60(sp)                      # 4-byte Folded Spill
	sw	s8, 56(sp)                      # 4-byte Folded Spill
	sw	s9, 52(sp)                      # 4-byte Folded Spill
	sw	s10, 48(sp)                     # 4-byte Folded Spill
	sw	s11, 44(sp)                     # 4-byte Folded Spill
	.cfi_offset ra, -4
	.cfi_offset s0, -8
	.cfi_offset s1, -12
	.cfi_offset s2, -16
	.cfi_offset s3, -20
	.cfi_offset s4, -24
	.cfi_offset s5, -28
	.cfi_offset s6, -32
	.cfi_offset s7, -36
	.cfi_offset s8, -40
	.cfi_offset s9, -44
	.cfi_offset s10, -48
	.cfi_offset s11, -52
	sw	a7, 36(sp)                      # 4-byte Folded Spill
.Ltmp0:
	#DEBUG_VALUE: fullAdder1:po2_p <- [DW_OP_plus_uconst 36] [$x2+0]
	sw	a6, 32(sp)                      # 4-byte Folded Spill
.Ltmp1:
	#DEBUG_VALUE: fullAdder1:po1_p <- [DW_OP_plus_uconst 32] [$x2+0]
	sw	a5, 28(sp)                      # 4-byte Folded Spill
.Ltmp2:
	#DEBUG_VALUE: fullAdder1:po0_p <- [DW_OP_plus_uconst 28] [$x2+0]
	.loc	0 15 10 prologue_end            # fulladder1.c:15:10
	lw	t0, 0(a0)
.Ltmp3:
	#DEBUG_VALUE: fullAdder1:pi0 <- $x5
	.loc	0 0 10 is_stmt 0                # fulladder1.c:0:10
	sw	t0, 40(sp)                      # 4-byte Folded Spill
	.loc	0 15 22                         # fulladder1.c:15:22
	lw	a0, 0(a1)
.Ltmp4:
	#DEBUG_VALUE: fullAdder1:pi1 <- $x10
	.loc	0 0 22                          # fulladder1.c:0:22
	sw	a0, 20(sp)                      # 4-byte Folded Spill
.Ltmp5:
	#DEBUG_VALUE: fullAdder1:pi1 <- [DW_OP_plus_uconst 20] [$x2+0]
	#DEBUG_VALUE: fullAdder1:pi1 <- [DW_OP_plus_uconst 20] [$x2+0]
	.loc	0 15 34                         # fulladder1.c:15:34
	lw	t1, 0(a2)
.Ltmp6:
	#DEBUG_VALUE: fullAdder1:pi2 <- $x6
	.loc	0 15 58                         # fulladder1.c:15:58
	lw	t3, 0(a4)
.Ltmp7:
	#DEBUG_VALUE: fullAdder1:pi4 <- $x28
	.loc	0 15 46                         # fulladder1.c:15:46
	lw	a0, 0(a3)
.Ltmp8:
	#DEBUG_VALUE: fullAdder1:pi3 <- $x10
	.loc	0 0 46                          # fulladder1.c:0:46
	sw	a0, 16(sp)                      # 4-byte Folded Spill
.Ltmp9:
	#DEBUG_VALUE: fullAdder1:pi3 <- [DW_OP_plus_uconst 16] [$x2+0]
	#DEBUG_VALUE: fullAdder1:pi3 <- [DW_OP_plus_uconst 16] [$x2+0]
	.loc	0 18 2 is_stmt 1                # fulladder1.c:18:2
	#APP
	########## BEGIN ##########
	#NO_APP
	.loc	0 19 2                          # fulladder1.c:19:2
	#APP
	xor	t0, t1, t0
	not	t0, t0
	#NO_APP
.Ltmp10:
	#DEBUG_VALUE: fullAdder1:new_n9 <- $x5
	#DEBUG_VALUE: fullAdder1:pi0 <- [DW_OP_plus_uconst 40] [$x2+0]
	#DEBUG_VALUE: fullAdder1:pi0 <- $x5
	.loc	0 20 2                          # fulladder1.c:20:2
	#APP
	xor	t2, t0, t3
	not	t2, t2
	#NO_APP
.Ltmp11:
	#DEBUG_VALUE: fullAdder1:po0 <- $x7
	.loc	0 0 2 is_stmt 0                 # fulladder1.c:0:2
	sw	t2, 24(sp)                      # 4-byte Folded Spill
.Ltmp12:
	#DEBUG_VALUE: fullAdder1:po0 <- [DW_OP_plus_uconst 24] [$x2+0]
	#DEBUG_VALUE: fullAdder1:po0 <- [DW_OP_plus_uconst 24] [$x2+0]
	lw	t2, 40(sp)                      # 4-byte Folded Reload
.Ltmp13:
	#DEBUG_VALUE: fullAdder1:pi0 <- $x7
	.loc	0 21 2 is_stmt 1                # fulladder1.c:21:2
	#APP
	and	t1, t1, t2
	#NO_APP
.Ltmp14:
	#DEBUG_VALUE: fullAdder1:new_n11 <- $x6
	.loc	0 22 2                          # fulladder1.c:22:2
	#APP
	not	t1, t1
	#NO_APP
.Ltmp15:
	#DEBUG_VALUE: fullAdder1:new_n12 <- $x6
	.loc	0 23 2                          # fulladder1.c:23:2
	#APP
	not	t0, t0
	#NO_APP
.Ltmp16:
	#DEBUG_VALUE: fullAdder1:new_n13 <- $x5
	.loc	0 24 2                          # fulladder1.c:24:2
	#APP
	and	t0, t0, t3
	#NO_APP
.Ltmp17:
	#DEBUG_VALUE: fullAdder1:new_n14 <- $x5
	.loc	0 25 2                          # fulladder1.c:25:2
	#APP
	not	t0, t0
	#NO_APP
.Ltmp18:
	#DEBUG_VALUE: fullAdder1:new_n15 <- $x5
	.loc	0 26 2                          # fulladder1.c:26:2
	#APP
	and	t0, t0, t1
	#NO_APP
.Ltmp19:
	#DEBUG_VALUE: fullAdder1:new_n16 <- $x5
	.loc	0 27 2                          # fulladder1.c:27:2
	#APP
	not	t0, t0
	#NO_APP
.Ltmp20:
	#DEBUG_VALUE: fullAdder1:new_n17 <- $x5
	.loc	0 0 2 is_stmt 0                 # fulladder1.c:0:2
	sw	t0, 40(sp)                      # 4-byte Folded Spill
.Ltmp21:
	#DEBUG_VALUE: fullAdder1:new_n17 <- [DW_OP_plus_uconst 40] [$x2+0]
	#DEBUG_VALUE: fullAdder1:new_n17 <- [DW_OP_plus_uconst 40] [$x2+0]
	lw	t3, 20(sp)                      # 4-byte Folded Reload
.Ltmp22:
	#DEBUG_VALUE: fullAdder1:pi1 <- $x28
	lw	t2, 16(sp)                      # 4-byte Folded Reload
.Ltmp23:
	#DEBUG_VALUE: fullAdder1:pi3 <- $x7
	.loc	0 28 2 is_stmt 1                # fulladder1.c:28:2
	#APP
	xor	t1, t2, t3
	not	t1, t1
	#NO_APP
.Ltmp24:
	#DEBUG_VALUE: fullAdder1:new_n18 <- $x6
	.loc	0 0 2 is_stmt 0                 # fulladder1.c:0:2
	lw	t0, 40(sp)                      # 4-byte Folded Reload
.Ltmp25:
	#DEBUG_VALUE: fullAdder1:new_n17 <- $x5
	.loc	0 29 2 is_stmt 1                # fulladder1.c:29:2
	#APP
	xor	t0, t1, t0
	not	t0, t0
	#NO_APP
.Ltmp26:
	#DEBUG_VALUE: fullAdder1:po1 <- $x5
	#DEBUG_VALUE: fullAdder1:new_n17 <- [DW_OP_plus_uconst 40] [$x2+0]
	.loc	0 0 2 is_stmt 0                 # fulladder1.c:0:2
	sw	t0, 12(sp)                      # 4-byte Folded Spill
.Ltmp27:
	#DEBUG_VALUE: fullAdder1:po1 <- [DW_OP_plus_uconst 12] [$x2+0]
	#DEBUG_VALUE: fullAdder1:po1 <- [DW_OP_plus_uconst 12] [$x2+0]
	.loc	0 30 2 is_stmt 1                # fulladder1.c:30:2
	#APP
	and	t3, t2, t3
	#NO_APP
.Ltmp28:
	#DEBUG_VALUE: fullAdder1:new_n20 <- $x28
	.loc	0 31 2                          # fulladder1.c:31:2
	#APP
	not	t3, t3
	#NO_APP
.Ltmp29:
	#DEBUG_VALUE: fullAdder1:new_n21 <- $x28
	.loc	0 32 2                          # fulladder1.c:32:2
	#APP
	not	t1, t1
	#NO_APP
.Ltmp30:
	#DEBUG_VALUE: fullAdder1:new_n22 <- $x6
	.loc	0 0 2 is_stmt 0                 # fulladder1.c:0:2
	lw	t0, 40(sp)                      # 4-byte Folded Reload
.Ltmp31:
	#DEBUG_VALUE: fullAdder1:new_n17 <- $x5
	.loc	0 33 2 is_stmt 1                # fulladder1.c:33:2
	#APP
	and	t0, t1, t0
	#NO_APP
.Ltmp32:
	#DEBUG_VALUE: fullAdder1:new_n23 <- $x5
	.loc	0 34 2                          # fulladder1.c:34:2
	#APP
	not	t0, t0
	#NO_APP
.Ltmp33:
	#DEBUG_VALUE: fullAdder1:new_n24 <- $x5
	.loc	0 35 2                          # fulladder1.c:35:2
	#APP
	and	t0, t0, t3
	#NO_APP
.Ltmp34:
	#DEBUG_VALUE: fullAdder1:new_n25 <- $x5
	.loc	0 37 2                          # fulladder1.c:37:2
	#APP
	########## END ##########
	#NO_APP
	lw	a0, 28(sp)                      # 4-byte Folded Reload
.Ltmp35:
	#DEBUG_VALUE: fullAdder1:po0_p <- $x10
	.loc	0 0 2 is_stmt 0                 # fulladder1.c:0:2
	lw	a1, 24(sp)                      # 4-byte Folded Reload
.Ltmp36:
	#DEBUG_VALUE: fullAdder1:po0 <- $x11
	.loc	0 39 9 is_stmt 1                # fulladder1.c:39:9
	sw	a1, 0(a0)
	lw	a0, 32(sp)                      # 4-byte Folded Reload
.Ltmp37:
	#DEBUG_VALUE: fullAdder1:po1_p <- $x10
	.loc	0 0 9 is_stmt 0                 # fulladder1.c:0:9
	lw	a1, 12(sp)                      # 4-byte Folded Reload
.Ltmp38:
	#DEBUG_VALUE: fullAdder1:po1 <- $x11
	.loc	0 40 9 is_stmt 1                # fulladder1.c:40:9
	sw	a1, 0(a0)
	.loc	0 36 2                          # fulladder1.c:36:2
	#APP
	not	t0, t0
	#NO_APP
.Ltmp39:
	#DEBUG_VALUE: fullAdder1:po2 <- $x5
	.loc	0 0 2 is_stmt 0                 # fulladder1.c:0:2
	lw	a0, 36(sp)                      # 4-byte Folded Reload
.Ltmp40:
	#DEBUG_VALUE: fullAdder1:po2_p <- $x10
	.loc	0 41 9 is_stmt 1                # fulladder1.c:41:9
	sw	t0, 0(a0)
	lw	ra, 92(sp)                      # 4-byte Folded Reload
	lw	s0, 88(sp)                      # 4-byte Folded Reload
	lw	s1, 84(sp)                      # 4-byte Folded Reload
	lw	s2, 80(sp)                      # 4-byte Folded Reload
	lw	s3, 76(sp)                      # 4-byte Folded Reload
	lw	s4, 72(sp)                      # 4-byte Folded Reload
	lw	s5, 68(sp)                      # 4-byte Folded Reload
	lw	s6, 64(sp)                      # 4-byte Folded Reload
	lw	s7, 60(sp)                      # 4-byte Folded Reload
	lw	s8, 56(sp)                      # 4-byte Folded Reload
	lw	s9, 52(sp)                      # 4-byte Folded Reload
	lw	s10, 48(sp)                     # 4-byte Folded Reload
	lw	s11, 44(sp)                     # 4-byte Folded Reload
	.loc	0 42 1 epilogue_begin           # fulladder1.c:42:1
	addi	sp, sp, 96
	ret
.Ltmp41:
.Lfunc_end0:
	.size	fullAdder1, .Lfunc_end0-fullAdder1
	.cfi_endproc
                                        # -- End function
	.section	".note.GNU-stack","",@progbits
	.addrsig